
BubbleSort.elf:     file format elf32-tradbigmips


Disassembly of section .text:

80020000 <main>:
80020000:	27bdffc8 	addiu	sp,sp,-56
80020004:	afbf0034 	sw	ra,52(sp)
80020008:	afbe0030 	sw	s8,48(sp)
8002000c:	03a0f021 	move	s8,sp
80020010:	2402000c 	li	v0,12
80020014:	afc20010 	sw	v0,16(s8)
80020018:	24020009 	li	v0,9
8002001c:	afc20014 	sw	v0,20(s8)
80020020:	24020004 	li	v0,4
80020024:	afc20018 	sw	v0,24(s8)
80020028:	24020063 	li	v0,99
8002002c:	afc2001c 	sw	v0,28(s8)
80020030:	24020078 	li	v0,120
80020034:	afc20020 	sw	v0,32(s8)
80020038:	24020001 	li	v0,1
8002003c:	afc20024 	sw	v0,36(s8)
80020040:	24020003 	li	v0,3
80020044:	afc20028 	sw	v0,40(s8)
80020048:	2402000a 	li	v0,10
8002004c:	afc2002c 	sw	v0,44(s8)
80020050:	27c20010 	addiu	v0,s8,16
80020054:	00402021 	move	a0,v0
80020058:	24050008 	li	a1,8
8002005c:	0c008020 	jal	80020080 <bubble_srt>
80020060:	00000000 	nop
80020064:	00001021 	move	v0,zero
80020068:	03c0e821 	move	sp,s8
8002006c:	8fbf0034 	lw	ra,52(sp)
80020070:	8fbe0030 	lw	s8,48(sp)
80020074:	27bd0038 	addiu	sp,sp,56
80020078:	03e00008 	jr	ra
8002007c:	00000000 	nop

80020080 <bubble_srt>:
80020080:	27bdffe8 	addiu	sp,sp,-24
80020084:	afbe0014 	sw	s8,20(sp)
80020088:	03a0f021 	move	s8,sp
8002008c:	afc40018 	sw	a0,24(s8)
80020090:	afc5001c 	sw	a1,28(s8)
80020094:	afc00000 	sw	zero,0(s8)
80020098:	0800805f 	j	8002017c <bubble_srt+0xfc>
8002009c:	00000000 	nop
800200a0:	24020001 	li	v0,1
800200a4:	afc20004 	sw	v0,4(s8)
800200a8:	08008055 	j	80020154 <bubble_srt+0xd4>
800200ac:	00000000 	nop
800200b0:	8fc20004 	lw	v0,4(s8)
800200b4:	2442ffff 	addiu	v0,v0,-1
800200b8:	00021080 	sll	v0,v0,0x2
800200bc:	8fc30018 	lw	v1,24(s8)
800200c0:	00621021 	addu	v0,v1,v0
800200c4:	8c430000 	lw	v1,0(v0)
800200c8:	8fc20004 	lw	v0,4(s8)
800200cc:	00021080 	sll	v0,v0,0x2
800200d0:	8fc40018 	lw	a0,24(s8)
800200d4:	00821021 	addu	v0,a0,v0
800200d8:	8c420000 	lw	v0,0(v0)
800200dc:	0043102a 	slt	v0,v0,v1
800200e0:	10400019 	beqz	v0,80020148 <bubble_srt+0xc8>
800200e4:	00000000 	nop
800200e8:	8fc20004 	lw	v0,4(s8)
800200ec:	2442ffff 	addiu	v0,v0,-1
800200f0:	00021080 	sll	v0,v0,0x2
800200f4:	8fc30018 	lw	v1,24(s8)
800200f8:	00621021 	addu	v0,v1,v0
800200fc:	8c420000 	lw	v0,0(v0)
80020100:	afc20008 	sw	v0,8(s8)
80020104:	8fc20004 	lw	v0,4(s8)
80020108:	2442ffff 	addiu	v0,v0,-1
8002010c:	00021080 	sll	v0,v0,0x2
80020110:	8fc30018 	lw	v1,24(s8)
80020114:	00621021 	addu	v0,v1,v0
80020118:	8fc30004 	lw	v1,4(s8)
8002011c:	00031880 	sll	v1,v1,0x2
80020120:	8fc40018 	lw	a0,24(s8)
80020124:	00831821 	addu	v1,a0,v1
80020128:	8c630000 	lw	v1,0(v1)
8002012c:	ac430000 	sw	v1,0(v0)
80020130:	8fc20004 	lw	v0,4(s8)
80020134:	00021080 	sll	v0,v0,0x2
80020138:	8fc30018 	lw	v1,24(s8)
8002013c:	00621021 	addu	v0,v1,v0
80020140:	8fc30008 	lw	v1,8(s8)
80020144:	ac430000 	sw	v1,0(v0)
80020148:	8fc20004 	lw	v0,4(s8)
8002014c:	24420001 	addiu	v0,v0,1
80020150:	afc20004 	sw	v0,4(s8)
80020154:	8fc3001c 	lw	v1,28(s8)
80020158:	8fc20000 	lw	v0,0(s8)
8002015c:	00621823 	subu	v1,v1,v0
80020160:	8fc20004 	lw	v0,4(s8)
80020164:	0043102a 	slt	v0,v0,v1
80020168:	1440ffd1 	bnez	v0,800200b0 <bubble_srt+0x30>
8002016c:	00000000 	nop
80020170:	8fc20000 	lw	v0,0(s8)
80020174:	24420001 	addiu	v0,v0,1
80020178:	afc20000 	sw	v0,0(s8)
8002017c:	8fc30000 	lw	v1,0(s8)
80020180:	8fc2001c 	lw	v0,28(s8)
80020184:	0062102a 	slt	v0,v1,v0
80020188:	1440ffc5 	bnez	v0,800200a0 <bubble_srt+0x20>
8002018c:	00000000 	nop
80020190:	03c0e821 	move	sp,s8
80020194:	8fbe0014 	lw	s8,20(sp)
80020198:	27bd0018 	addiu	sp,sp,24
8002019c:	03e00008 	jr	ra
800201a0:	00000000 	nop

Disassembly of section .reginfo:

00000000 <.reginfo>:
   0:	e000003c 	sc	zero,60(zero)
	...

Disassembly of section .pdr:

00000000 <.pdr>:
   0:	80020000 	lb	v0,0(zero)
   4:	c0000000 	ll	zero,0(zero)
   8:	fffffffc 	sdc3	$31,-4(ra)
	...
  14:	00000038 	0x38
  18:	0000001e 	0x1e
  1c:	0000001f 	0x1f
  20:	80020080 	lb	v0,128(zero)
  24:	40000000 	mfc0	zero,c0_index
  28:	fffffffc 	sdc3	$31,-4(ra)
	...
  34:	00000018 	mult	zero,zero
  38:	0000001e 	0x1e
  3c:	0000001f 	0x1f

Disassembly of section .comment:

00000000 <.comment>:
   0:	4743433a 	c1	0x143433a
   4:	2028536f 	addi	t0,at,21359
   8:	75726365 	jalx	5c98d94 <main-0x7a38726c>
   c:	72792047 	0x72792047
  10:	2b2b204c 	slti	t3,t9,8268
  14:	69746520 	0x69746520
  18:	32303131 	andi	s0,s1,0x3131
  1c:	2e30332d 	sltiu	s0,s1,13101
  20:	35322920 	ori	s2,t1,0x2920
  24:	342e352e 	ori	t6,at,0x352e
  28:	Address 0x0000000000000028 is out of bounds.


Disassembly of section .gnu.attributes:

00000000 <.gnu.attributes>:
   0:	41000000 	bc0f	4 <main-0x8001fffc>
   4:	0f676e75 	jal	d9db9d4 <main-0x7264462c>
   8:	00010000 	sll	zero,at,0x0
   c:	00070401 	0x70401
