
CheckVowel.elf:     file format elf32-tradbigmips


Disassembly of section .text:

80020000 <main>:
80020000:	27bdffd8 	addiu	sp,sp,-40
80020004:	afbe0024 	sw	s8,36(sp)
80020008:	03a0f021 	move	s8,sp
8002000c:	afc00000 	sw	zero,0(s8)
80020010:	afc00004 	sw	zero,4(s8)
80020014:	3c028002 	lui	v0,0x8002
80020018:	8c45019c 	lw	a1,412(v0)
8002001c:	2443019c 	addiu	v1,v0,412
80020020:	8c640004 	lw	a0,4(v1)
80020024:	2443019c 	addiu	v1,v0,412
80020028:	8c630008 	lw	v1,8(v1)
8002002c:	afc50008 	sw	a1,8(s8)
80020030:	afc4000c 	sw	a0,12(s8)
80020034:	afc30010 	sw	v1,16(s8)
80020038:	2442019c 	addiu	v0,v0,412
8002003c:	9042000c 	lbu	v0,12(v0)
80020040:	a3c20014 	sb	v0,20(s8)
80020044:	a3c00015 	sb	zero,21(s8)
80020048:	a3c00016 	sb	zero,22(s8)
8002004c:	a3c00017 	sb	zero,23(s8)
80020050:	a3c00018 	sb	zero,24(s8)
80020054:	a3c00019 	sb	zero,25(s8)
80020058:	a3c0001a 	sb	zero,26(s8)
8002005c:	a3c0001b 	sb	zero,27(s8)
80020060:	afc00000 	sw	zero,0(s8)
80020064:	0800805d 	j	80020174 <main+0x174>
80020068:	00000000 	nop
8002006c:	8fc20000 	lw	v0,0(s8)
80020070:	03c21021 	addu	v0,s8,v0
80020074:	90430008 	lbu	v1,8(v0)
80020078:	24020061 	li	v0,97
8002007c:	10620037 	beq	v1,v0,8002015c <main+0x15c>
80020080:	00000000 	nop
80020084:	8fc20000 	lw	v0,0(s8)
80020088:	03c21021 	addu	v0,s8,v0
8002008c:	90430008 	lbu	v1,8(v0)
80020090:	24020041 	li	v0,65
80020094:	10620031 	beq	v1,v0,8002015c <main+0x15c>
80020098:	00000000 	nop
8002009c:	8fc20000 	lw	v0,0(s8)
800200a0:	03c21021 	addu	v0,s8,v0
800200a4:	90430008 	lbu	v1,8(v0)
800200a8:	24020065 	li	v0,101
800200ac:	1062002b 	beq	v1,v0,8002015c <main+0x15c>
800200b0:	00000000 	nop
800200b4:	8fc20000 	lw	v0,0(s8)
800200b8:	03c21021 	addu	v0,s8,v0
800200bc:	90430008 	lbu	v1,8(v0)
800200c0:	24020045 	li	v0,69
800200c4:	10620025 	beq	v1,v0,8002015c <main+0x15c>
800200c8:	00000000 	nop
800200cc:	8fc20000 	lw	v0,0(s8)
800200d0:	03c21021 	addu	v0,s8,v0
800200d4:	90430008 	lbu	v1,8(v0)
800200d8:	24020069 	li	v0,105
800200dc:	1062001f 	beq	v1,v0,8002015c <main+0x15c>
800200e0:	00000000 	nop
800200e4:	8fc20000 	lw	v0,0(s8)
800200e8:	03c21021 	addu	v0,s8,v0
800200ec:	90430008 	lbu	v1,8(v0)
800200f0:	24020049 	li	v0,73
800200f4:	10620019 	beq	v1,v0,8002015c <main+0x15c>
800200f8:	00000000 	nop
800200fc:	8fc20000 	lw	v0,0(s8)
80020100:	03c21021 	addu	v0,s8,v0
80020104:	90430008 	lbu	v1,8(v0)
80020108:	2402006f 	li	v0,111
8002010c:	10620013 	beq	v1,v0,8002015c <main+0x15c>
80020110:	00000000 	nop
80020114:	8fc20000 	lw	v0,0(s8)
80020118:	03c21021 	addu	v0,s8,v0
8002011c:	90430008 	lbu	v1,8(v0)
80020120:	2402004f 	li	v0,79
80020124:	1062000d 	beq	v1,v0,8002015c <main+0x15c>
80020128:	00000000 	nop
8002012c:	8fc20000 	lw	v0,0(s8)
80020130:	03c21021 	addu	v0,s8,v0
80020134:	90430008 	lbu	v1,8(v0)
80020138:	24020075 	li	v0,117
8002013c:	10620007 	beq	v1,v0,8002015c <main+0x15c>
80020140:	00000000 	nop
80020144:	8fc20000 	lw	v0,0(s8)
80020148:	03c21021 	addu	v0,s8,v0
8002014c:	90430008 	lbu	v1,8(v0)
80020150:	24020055 	li	v0,85
80020154:	14620004 	bne	v1,v0,80020168 <main+0x168>
80020158:	00000000 	nop
8002015c:	8fc20004 	lw	v0,4(s8)
80020160:	24420001 	addiu	v0,v0,1
80020164:	afc20004 	sw	v0,4(s8)
80020168:	8fc20000 	lw	v0,0(s8)
8002016c:	24420001 	addiu	v0,v0,1
80020170:	afc20000 	sw	v0,0(s8)
80020174:	8fc20000 	lw	v0,0(s8)
80020178:	28420014 	slti	v0,v0,20
8002017c:	1440ffbb 	bnez	v0,8002006c <main+0x6c>
80020180:	00000000 	nop
80020184:	00001021 	move	v0,zero
80020188:	03c0e821 	move	sp,s8
8002018c:	8fbe0024 	lw	s8,36(sp)
80020190:	27bd0028 	addiu	sp,sp,40
80020194:	03e00008 	jr	ra
80020198:	00000000 	nop

Disassembly of section .rodata:

8002019c <.rodata>:
8002019c:	43686563 	c0	0x1686563
800201a0:	6b566f77 	0x6b566f77
800201a4:	656c210a 	0x656c210a
	...

Disassembly of section .reginfo:

00000000 <.reginfo>:
   0:	e000003c 	sc	zero,60(zero)
	...

Disassembly of section .pdr:

00000000 <.pdr>:
   0:	80020000 	lb	v0,0(zero)
   4:	40000000 	mfc0	zero,c0_index
   8:	fffffffc 	sdc3	$31,-4(ra)
	...
  14:	00000028 	0x28
  18:	0000001e 	0x1e
  1c:	0000001f 	0x1f

Disassembly of section .comment:

00000000 <.comment>:
   0:	4743433a 	c1	0x143433a
   4:	2028536f 	addi	t0,at,21359
   8:	75726365 	jalx	5c98d94 <main-0x7a38726c>
   c:	72792047 	0x72792047
  10:	2b2b204c 	slti	t3,t9,8268
  14:	69746520 	0x69746520
  18:	32303131 	andi	s0,s1,0x3131
  1c:	2e30332d 	sltiu	s0,s1,13101
  20:	35322920 	ori	s2,t1,0x2920
  24:	342e352e 	ori	t6,at,0x352e
  28:	Address 0x0000000000000028 is out of bounds.


Disassembly of section .gnu.attributes:

00000000 <.gnu.attributes>:
   0:	41000000 	bc0f	4 <main-0x8001fffc>
   4:	0f676e75 	jal	d9db9d4 <main-0x7264462c>
   8:	00010000 	sll	zero,at,0x0
   c:	00070401 	0x70401
